target datalayout = "e-m:e-p270:32:32-p271:32:32-p272:64:64-i64:64-i128:128-f80:128-n8:16:32:64-S128"
target triple = "x86_64-pc-linux-gnu"

%struct._lv_obj_t = type { ptr, ptr, ptr, ptr, ptr, %struct.lv_area_t, i32, i16, i16 }
%struct.lv_area_t = type { i32, i32, i32, i32 }
%struct.lv_event_list_t = type { %struct._lv_array_t, i8 }
%struct._lv_array_t = type { ptr, i32, i32, i32, i8 }
%struct._lv_obj_spec_attr_t = type { ptr, ptr, %struct.lv_event_list_t, %struct.lv_point_t, i32, i32, i16, i16 }
%struct.lv_point_t = type { i32, i32 }

; Function Attrs: nounwind uwtable
define ptr @lv_obj_get_parent(ptr noundef %0) #0 {
  %2 = alloca ptr, align 8
  %3 = alloca ptr, align 8
  store ptr %0, ptr %3, align 8, !tbaa !3
  %4 = load ptr, ptr %3, align 8, !tbaa !3
  %5 = icmp eq ptr %4, null
  br i1 %5, label %6, label %7

6:                                                ; preds = %1
  store ptr null, ptr %2, align 8
  br label %20

7:                                                ; preds = %1
  br label %8

8:                                                ; preds = %7
  %9 = load ptr, ptr %3, align 8, !tbaa !3
  %10 = icmp ne ptr %9, null
  br i1 %10, label %15, label %11

11:                                               ; preds = %8
  br label %12

12:                                               ; preds = %11
  br label %13

13:                                               ; preds = %12
  br label %14

14:                                               ; preds = %13, %14
  br label %14

15:                                               ; preds = %8
  br label %16

16:                                               ; preds = %15
  %17 = load ptr, ptr %3, align 8, !tbaa !3
  %18 = getelementptr inbounds nuw %struct._lv_obj_t, ptr %17, i32 0, i32 1
  %19 = load ptr, ptr %18, align 8, !tbaa !30
  store ptr %19, ptr %2, align 8
  br label %20

20:                                               ; preds = %16, %6
  %21 = load ptr, ptr %2, align 8
  ret ptr %21
}

; Function Attrs: nounwind uwtable
define i32 @lv_obj_get_child_count(ptr noundef %0) #0 {
  %2 = alloca i32, align 4
  %3 = alloca ptr, align 8
  store ptr %0, ptr %3, align 8, !tbaa !3
  br label %4

4:                                                ; preds = %1
  %5 = load ptr, ptr %3, align 8, !tbaa !3
  %6 = icmp ne ptr %5, null
  br i1 %6, label %11, label %7

7:                                                ; preds = %4
  br label %8

8:                                                ; preds = %7
  br label %9

9:                                                ; preds = %8
  br label %10

10:                                               ; preds = %9, %10
  br label %10

11:                                               ; preds = %4
  br label %12

12:                                               ; preds = %11
  %13 = load ptr, ptr %3, align 8, !tbaa !3
  %14 = getelementptr inbounds nuw %struct._lv_obj_t, ptr %13, i32 0, i32 2
  %15 = load ptr, ptr %14, align 8, !tbaa !43
  %16 = icmp eq ptr %15, null
  br i1 %16, label %17, label %18

17:                                               ; preds = %12
  store i32 0, ptr %2, align 4
  br label %25

18:                                               ; preds = %12
  %19 = load ptr, ptr %3, align 8, !tbaa !3
  %20 = getelementptr inbounds nuw %struct._lv_obj_t, ptr %19, i32 0, i32 2
  %21 = load ptr, ptr %20, align 8, !tbaa !43
  %22 = getelementptr inbounds nuw %struct._lv_obj_spec_attr_t, ptr %21, i32 0, i32 6
  %23 = load i16, ptr %22, align 8, !tbaa !64
  %24 = zext i16 %23 to i32
  store i32 %24, ptr %2, align 4
  br label %25

25:                                               ; preds = %18, %17
  %26 = load i32, ptr %2, align 4
  ret i32 %26
}

; Function Attrs: nounwind uwtable
define i32 @lv_obj_get_index(ptr noundef %0) #0 {
  %2 = alloca i32, align 4
  %3 = alloca ptr, align 8
  %4 = alloca ptr, align 8
  %5 = alloca i32, align 4
  %6 = alloca i32, align 4
  store ptr %0, ptr %3, align 8, !tbaa !3
  br label %7

7:                                                ; preds = %1
  %8 = load ptr, ptr %3, align 8, !tbaa !3
  %9 = icmp ne ptr %8, null
  br i1 %9, label %14, label %10

10:                                               ; preds = %7
  br label %11

11:                                               ; preds = %10
  br label %12

12:                                               ; preds = %11
  br label %13

13:                                               ; preds = %12, %13
  br label %13

14:                                               ; preds = %7
  br label %15

15:                                               ; preds = %14
  call void @llvm.lifetime.start.p0(i64 8, ptr %4) #3
  %16 = load ptr, ptr %3, align 8, !tbaa !3
  %17 = call ptr @lv_obj_get_parent(ptr noundef %16)
  store ptr %17, ptr %4, align 8, !tbaa !3
  %18 = load ptr, ptr %4, align 8, !tbaa !3
  %19 = icmp eq ptr %18, null
  br i1 %19, label %20, label %21

20:                                               ; preds = %15
  store i32 -1, ptr %2, align 4
  store i32 1, ptr %5, align 4
  br label %59

21:                                               ; preds = %15
  call void @llvm.lifetime.start.p0(i64 4, ptr %6) #3
  store i32 0, ptr %6, align 4, !tbaa !37
  store i32 0, ptr %6, align 4, !tbaa !37
  br label %22

22:                                               ; preds = %46, %21
  %23 = load i32, ptr %6, align 4, !tbaa !37
  %24 = load ptr, ptr %4, align 8, !tbaa !3
  %25 = getelementptr inbounds nuw %struct._lv_obj_t, ptr %24, i32 0, i32 2
  %26 = load ptr, ptr %25, align 8, !tbaa !43
  %27 = getelementptr inbounds nuw %struct._lv_obj_spec_attr_t, ptr %26, i32 0, i32 6
  %28 = load i16, ptr %27, align 8, !tbaa !64
  %29 = zext i16 %28 to i32
  %30 = icmp slt i32 %23, %29
  br i1 %30, label %31, label %49

31:                                               ; preds = %22
  %32 = load ptr, ptr %4, align 8, !tbaa !3
  %33 = getelementptr inbounds nuw %struct._lv_obj_t, ptr %32, i32 0, i32 2
  %34 = load ptr, ptr %33, align 8, !tbaa !43
  %35 = getelementptr inbounds nuw %struct._lv_obj_spec_attr_t, ptr %34, i32 0, i32 0
  %36 = load ptr, ptr %35, align 8, !tbaa !66
  %37 = load i32, ptr %6, align 4, !tbaa !37
  %38 = sext i32 %37 to i64
  %39 = getelementptr inbounds ptr, ptr %36, i64 %38
  %40 = load ptr, ptr %39, align 8, !tbaa !3
  %41 = load ptr, ptr %3, align 8, !tbaa !3
  %42 = icmp eq ptr %40, %41
  br i1 %42, label %43, label %45

43:                                               ; preds = %31
  %44 = load i32, ptr %6, align 4, !tbaa !37
  store i32 %44, ptr %2, align 4
  store i32 1, ptr %5, align 4
  br label %58

45:                                               ; preds = %31
  br label %46

46:                                               ; preds = %45
  %47 = load i32, ptr %6, align 4, !tbaa !37
  %48 = add nsw i32 %47, 1
  store i32 %48, ptr %6, align 4, !tbaa !37
  br label %22, !llvm.loop !76

49:                                               ; preds = %22
  br label %50

50:                                               ; preds = %49
  br label %51

51:                                               ; preds = %50
  br label %52

52:                                               ; preds = %51
  br label %53

53:                                               ; preds = %52
  br label %54

54:                                               ; preds = %55, %53
  br label %55

55:                                               ; preds = %54
  br label %54

56:                                               ; No predecessors!
  br label %57

57:                                               ; preds = %56
  store i32 -1, ptr %2, align 4
  store i32 1, ptr %5, align 4
  br label %58

58:                                               ; preds = %57, %43
  call void @llvm.lifetime.end.p0(i64 4, ptr %6) #3
  br label %59

59:                                               ; preds = %58, %20
  call void @llvm.lifetime.end.p0(i64 8, ptr %4) #3
  %60 = load i32, ptr %2, align 4
  ret i32 %60
}

; Function Attrs: nounwind uwtable
define void @lv_obj_set_parent(ptr noundef %0, ptr noundef %1) #0 {
  %3 = alloca ptr, align 8
  %4 = alloca ptr, align 8
  %5 = alloca ptr, align 8
  %6 = alloca i32, align 4
  store ptr %0, ptr %3, align 8, !tbaa !3
  store ptr %1, ptr %4, align 8, !tbaa !3
  br label %7

7:                                                ; preds = %2
  %8 = load ptr, ptr %3, align 8, !tbaa !3
  %9 = icmp ne ptr %8, null
  br i1 %9, label %14, label %10

10:                                               ; preds = %7
  br label %11

11:                                               ; preds = %10
  br label %12

12:                                               ; preds = %11
  br label %13

13:                                               ; preds = %12, %13
  br label %13

14:                                               ; preds = %7
  br label %15

15:                                               ; preds = %14
  br label %16

16:                                               ; preds = %15
  %17 = load ptr, ptr %4, align 8, !tbaa !3
  %18 = icmp ne ptr %17, null
  br i1 %18, label %23, label %19

19:                                               ; preds = %16
  br label %20

20:                                               ; preds = %19
  br label %21

21:                                               ; preds = %20
  br label %22

22:                                               ; preds = %21, %22
  br label %22

23:                                               ; preds = %16
  br label %24

24:                                               ; preds = %23
  %25 = load ptr, ptr %3, align 8, !tbaa !3
  %26 = getelementptr inbounds nuw %struct._lv_obj_t, ptr %25, i32 0, i32 1
  %27 = load ptr, ptr %26, align 8, !tbaa !30
  %28 = icmp eq ptr %27, null
  br i1 %28, label %29, label %32

29:                                               ; preds = %24
  br label %30

30:                                               ; preds = %29
  br label %31

31:                                               ; preds = %30
  br label %173

32:                                               ; preds = %24
  %33 = load ptr, ptr %4, align 8, !tbaa !3
  %34 = icmp eq ptr %33, null
  br i1 %34, label %35, label %38

35:                                               ; preds = %32
  br label %36

36:                                               ; preds = %35
  br label %37

37:                                               ; preds = %36
  br label %173

38:                                               ; preds = %32
  %39 = load ptr, ptr %4, align 8, !tbaa !3
  %40 = load ptr, ptr %3, align 8, !tbaa !3
  %41 = getelementptr inbounds nuw %struct._lv_obj_t, ptr %40, i32 0, i32 1
  %42 = load ptr, ptr %41, align 8, !tbaa !30
  %43 = icmp eq ptr %39, %42
  br i1 %43, label %44, label %45

44:                                               ; preds = %38
  br label %173

45:                                               ; preds = %38
  %46 = load ptr, ptr %3, align 8, !tbaa !3
  call void @lv_obj_invalidate(ptr noundef %46)
  %47 = load ptr, ptr %4, align 8, !tbaa !3
  call void @lv_obj_allocate_spec_attr(ptr noundef %47)
  call void @llvm.lifetime.start.p0(i64 8, ptr %5) #3
  %48 = load ptr, ptr %3, align 8, !tbaa !3
  %49 = getelementptr inbounds nuw %struct._lv_obj_t, ptr %48, i32 0, i32 1
  %50 = load ptr, ptr %49, align 8, !tbaa !30
  store ptr %50, ptr %5, align 8, !tbaa !3
  call void @llvm.lifetime.start.p0(i64 4, ptr %6) #3
  %51 = load ptr, ptr %3, align 8, !tbaa !3
  %52 = call i32 @lv_obj_get_index(ptr noundef %51)
  store i32 %52, ptr %6, align 4, !tbaa !37
  br label %53

53:                                               ; preds = %78, %45
  %54 = load i32, ptr %6, align 4, !tbaa !37
  %55 = load ptr, ptr %5, align 8, !tbaa !3
  %56 = call i32 @lv_obj_get_child_count(ptr noundef %55)
  %57 = sub nsw i32 %56, 2
  %58 = icmp sle i32 %54, %57
  br i1 %58, label %59, label %81

59:                                               ; preds = %53
  %60 = load ptr, ptr %5, align 8, !tbaa !3
  %61 = getelementptr inbounds nuw %struct._lv_obj_t, ptr %60, i32 0, i32 2
  %62 = load ptr, ptr %61, align 8, !tbaa !43
  %63 = getelementptr inbounds nuw %struct._lv_obj_spec_attr_t, ptr %62, i32 0, i32 0
  %64 = load ptr, ptr %63, align 8, !tbaa !66
  %65 = load i32, ptr %6, align 4, !tbaa !37
  %66 = add nsw i32 %65, 1
  %67 = sext i32 %66 to i64
  %68 = getelementptr inbounds ptr, ptr %64, i64 %67
  %69 = load ptr, ptr %68, align 8, !tbaa !3
  %70 = load ptr, ptr %5, align 8, !tbaa !3
  %71 = getelementptr inbounds nuw %struct._lv_obj_t, ptr %70, i32 0, i32 2
  %72 = load ptr, ptr %71, align 8, !tbaa !43
  %73 = getelementptr inbounds nuw %struct._lv_obj_spec_attr_t, ptr %72, i32 0, i32 0
  %74 = load ptr, ptr %73, align 8, !tbaa !66
  %75 = load i32, ptr %6, align 4, !tbaa !37
  %76 = sext i32 %75 to i64
  %77 = getelementptr inbounds ptr, ptr %74, i64 %76
  store ptr %69, ptr %77, align 8, !tbaa !3
  br label %78

78:                                               ; preds = %59
  %79 = load i32, ptr %6, align 4, !tbaa !37
  %80 = add nsw i32 %79, 1
  store i32 %80, ptr %6, align 4, !tbaa !37
  br label %53, !llvm.loop !75

81:                                               ; preds = %53
  %82 = load ptr, ptr %5, align 8, !tbaa !3
  %83 = getelementptr inbounds nuw %struct._lv_obj_t, ptr %82, i32 0, i32 2
  %84 = load ptr, ptr %83, align 8, !tbaa !43
  %85 = getelementptr inbounds nuw %struct._lv_obj_spec_attr_t, ptr %84, i32 0, i32 6
  %86 = load i16, ptr %85, align 8, !tbaa !64
  %87 = add i16 %86, -1
  store i16 %87, ptr %85, align 8, !tbaa !64
  %88 = load ptr, ptr %5, align 8, !tbaa !3
  %89 = getelementptr inbounds nuw %struct._lv_obj_t, ptr %88, i32 0, i32 2
  %90 = load ptr, ptr %89, align 8, !tbaa !43
  %91 = getelementptr inbounds nuw %struct._lv_obj_spec_attr_t, ptr %90, i32 0, i32 6
  %92 = load i16, ptr %91, align 8, !tbaa !64
  %93 = icmp ne i16 %92, 0
  br i1 %93, label %94, label %112

94:                                               ; preds = %81
  %95 = load ptr, ptr %5, align 8, !tbaa !3
  %96 = getelementptr inbounds nuw %struct._lv_obj_t, ptr %95, i32 0, i32 2
  %97 = load ptr, ptr %96, align 8, !tbaa !43
  %98 = getelementptr inbounds nuw %struct._lv_obj_spec_attr_t, ptr %97, i32 0, i32 0
  %99 = load ptr, ptr %98, align 8, !tbaa !66
  %100 = load ptr, ptr %5, align 8, !tbaa !3
  %101 = getelementptr inbounds nuw %struct._lv_obj_t, ptr %100, i32 0, i32 2
  %102 = load ptr, ptr %101, align 8, !tbaa !43
  %103 = getelementptr inbounds nuw %struct._lv_obj_spec_attr_t, ptr %102, i32 0, i32 6
  %104 = load i16, ptr %103, align 8, !tbaa !64
  %105 = zext i16 %104 to i64
  %106 = mul i64 %105, 8
  %107 = call ptr @lv_realloc(ptr noundef %99, i64 noundef %106)
  %108 = load ptr, ptr %5, align 8, !tbaa !3
  %109 = getelementptr inbounds nuw %struct._lv_obj_t, ptr %108, i32 0, i32 2
  %110 = load ptr, ptr %109, align 8, !tbaa !43
  %111 = getelementptr inbounds nuw %struct._lv_obj_spec_attr_t, ptr %110, i32 0, i32 0
  store ptr %107, ptr %111, align 8, !tbaa !66
  br label %122

112:                                              ; preds = %81
  %113 = load ptr, ptr %5, align 8, !tbaa !3
  %114 = getelementptr inbounds nuw %struct._lv_obj_t, ptr %113, i32 0, i32 2
  %115 = load ptr, ptr %114, align 8, !tbaa !43
  %116 = getelementptr inbounds nuw %struct._lv_obj_spec_attr_t, ptr %115, i32 0, i32 0
  %117 = load ptr, ptr %116, align 8, !tbaa !66
  call void @lv_free(ptr noundef %117)
  %118 = load ptr, ptr %5, align 8, !tbaa !3
  %119 = getelementptr inbounds nuw %struct._lv_obj_t, ptr %118, i32 0, i32 2
  %120 = load ptr, ptr %119, align 8, !tbaa !43
  %121 = getelementptr inbounds nuw %struct._lv_obj_spec_attr_t, ptr %120, i32 0, i32 0
  store ptr null, ptr %121, align 8, !tbaa !66
  br label %122

122:                                              ; preds = %112, %94
  %123 = load ptr, ptr %4, align 8, !tbaa !3
  %124 = getelementptr inbounds nuw %struct._lv_obj_t, ptr %123, i32 0, i32 2
  %125 = load ptr, ptr %124, align 8, !tbaa !43
  %126 = getelementptr inbounds nuw %struct._lv_obj_spec_attr_t, ptr %125, i32 0, i32 6
  %127 = load i16, ptr %126, align 8, !tbaa !64
  %128 = add i16 %127, 1
  store i16 %128, ptr %126, align 8, !tbaa !64
  %129 = load ptr, ptr %4, align 8, !tbaa !3
  %130 = getelementptr inbounds nuw %struct._lv_obj_t, ptr %129, i32 0, i32 2
  %131 = load ptr, ptr %130, align 8, !tbaa !43
  %132 = getelementptr inbounds nuw %struct._lv_obj_spec_attr_t, ptr %131, i32 0, i32 0
  %133 = load ptr, ptr %132, align 8, !tbaa !66
  %134 = load ptr, ptr %4, align 8, !tbaa !3
  %135 = getelementptr inbounds nuw %struct._lv_obj_t, ptr %134, i32 0, i32 2
  %136 = load ptr, ptr %135, align 8, !tbaa !43
  %137 = getelementptr inbounds nuw %struct._lv_obj_spec_attr_t, ptr %136, i32 0, i32 6
  %138 = load i16, ptr %137, align 8, !tbaa !64
  %139 = zext i16 %138 to i64
  %140 = mul i64 %139, 8
  %141 = call ptr @lv_realloc(ptr noundef %133, i64 noundef %140)
  %142 = load ptr, ptr %4, align 8, !tbaa !3
  %143 = getelementptr inbounds nuw %struct._lv_obj_t, ptr %142, i32 0, i32 2
  %144 = load ptr, ptr %143, align 8, !tbaa !43
  %145 = getelementptr inbounds nuw %struct._lv_obj_spec_attr_t, ptr %144, i32 0, i32 0
  store ptr %141, ptr %145, align 8, !tbaa !66
  %146 = load ptr, ptr %3, align 8, !tbaa !3
  %147 = load ptr, ptr %4, align 8, !tbaa !3
  %148 = getelementptr inbounds nuw %struct._lv_obj_t, ptr %147, i32 0, i32 2
  %149 = load ptr, ptr %148, align 8, !tbaa !43
  %150 = getelementptr inbounds nuw %struct._lv_obj_spec_attr_t, ptr %149, i32 0, i32 0
  %151 = load ptr, ptr %150, align 8, !tbaa !66
  %152 = load ptr, ptr %4, align 8, !tbaa !3
  %153 = call i32 @lv_obj_get_child_count(ptr noundef %152)
  %154 = sub i32 %153, 1
  %155 = zext i32 %154 to i64
  %156 = getelementptr inbounds nuw ptr, ptr %151, i64 %155
  store ptr %146, ptr %156, align 8, !tbaa !3
  %157 = load ptr, ptr %4, align 8, !tbaa !3
  %158 = load ptr, ptr %3, align 8, !tbaa !3
  %159 = getelementptr inbounds nuw %struct._lv_obj_t, ptr %158, i32 0, i32 1
  store ptr %157, ptr %159, align 8, !tbaa !30
  %160 = load ptr, ptr %5, align 8, !tbaa !3
  call void @lv_obj_scrollbar_invalidate(ptr noundef %160)
  %161 = load ptr, ptr %5, align 8, !tbaa !3
  %162 = load ptr, ptr %3, align 8, !tbaa !3
  %163 = call i32 @lv_obj_send_event(ptr noundef %161, i32 noundef 42, ptr noundef %162)
  %164 = load ptr, ptr %5, align 8, !tbaa !3
  %165 = call i32 @lv_obj_send_event(ptr noundef %164, i32 noundef 44, ptr noundef null)
  %166 = load ptr, ptr %4, align 8, !tbaa !3
  %167 = load ptr, ptr %3, align 8, !tbaa !3
  %168 = call i32 @lv_obj_send_event(ptr noundef %166, i32 noundef 42, ptr noundef %167)
  %169 = load ptr, ptr %4, align 8, !tbaa !3
  %170 = call i32 @lv_obj_send_event(ptr noundef %169, i32 noundef 43, ptr noundef null)
  %171 = load ptr, ptr %3, align 8, !tbaa !3
  call void @lv_obj_mark_layout_as_dirty(ptr noundef %171)
  %172 = load ptr, ptr %3, align 8, !tbaa !3
  call void @lv_obj_invalidate(ptr noundef %172)
  call void @llvm.lifetime.end.p0(i64 4, ptr %6) #3
  call void @llvm.lifetime.end.p0(i64 8, ptr %5) #3
  br label %173

173:                                              ; preds = %122, %44, %37, %31
  ret void
}