; Function Attrs: nounwind uwtable
define void @lv_obj_set_parent(ptr noundef %0, ptr noundef %1) local_unnamed_addr #0 {
  %.not = icmp eq ptr %0, null
  br i1 %.not, label %.preheader, label %3

.preheader:                                       ; preds = %2, %.preheader
  br label %.preheader

3:                                                ; preds = %2
  %.not46 = icmp eq ptr %1, null
  br i1 %.not46, label %.preheader55, label %4

.preheader55:                                     ; preds = %3, %.preheader55
  br label %.preheader55

4:                                                ; preds = %3
  %5 = getelementptr inbounds nuw i8, ptr %0, i64 8
  %6 = load ptr, ptr %5, align 8, !tbaa !3
  %7 = icmp eq ptr %6, null
  %8 = icmp eq ptr %1, %6
  %or.cond = or i1 %7, %8
  br i1 %or.cond, label %65, label %lv_obj_get_parent.exit.i

lv_obj_get_parent.exit.i:                         ; preds = %4
  tail call void @lv_obj_invalidate(ptr noundef nonnull %0) #6
  tail call void @lv_obj_allocate_spec_attr(ptr noundef nonnull %1) #6
  %9 = load ptr, ptr %5, align 8, !tbaa !3
  %10 = icmp eq ptr %9, null
  br i1 %10, label %.preheader.i50, label %.preheader14.i

.preheader14.i:                                   ; preds = %lv_obj_get_parent.exit.i
  %11 = getelementptr inbounds nuw i8, ptr %9, i64 16
  %12 = load ptr, ptr %11, align 8, !tbaa !37
  %13 = getelementptr inbounds nuw i8, ptr %12, i64 64
  %14 = load i16, ptr %13, align 8, !tbaa !38
  %.not17.i = icmp eq i16 %14, 0
  br i1 %.not17.i, label %.preheader13.i.preheader, label %.lr.ph.i

.lr.ph.i:                                         ; preds = %.preheader14.i
  %15 = load ptr, ptr %12, align 8, !tbaa !42
  %wide.trip.count.i = zext i16 %14 to i64
  br label %16

16:                                               ; preds = %20, %.lr.ph.i
  %indvars.iv.i = phi i64 [ 0, %.lr.ph.i ], [ %indvars.iv.next.i, %20 ]
  %17 = getelementptr inbounds nuw ptr, ptr %15, i64 %indvars.iv.i
  %18 = load ptr, ptr %17, align 8, !tbaa !33
  %19 = icmp eq ptr %18, %0
  br i1 %19, label %lv_obj_get_index.exit, label %20

20:                                               ; preds = %16
  %indvars.iv.next.i = add nuw nsw i64 %indvars.iv.i, 1
  %exitcond.not.i = icmp eq i64 %indvars.iv.next.i, %wide.trip.count.i
  br i1 %exitcond.not.i, label %.preheader13.i.preheader, label %16, !llvm.loop !58

.preheader13.i.preheader:                         ; preds = %20, %.preheader14.i
  br label %.preheader13.i

.preheader13.i:                                   ; preds = %.preheader13.i.preheader, %.preheader13.i
  br label %.preheader13.i

lv_obj_get_index.exit:                            ; preds = %16
  %21 = getelementptr inbounds nuw i8, ptr %9, i64 16
  %22 = load ptr, ptr %21, align 8, !tbaa !37
  %23 = icmp eq ptr %22, null
  br i1 %23, label %.split, label %.lr.ph.split.split

.lr.ph.split.split:                               ; preds = %lv_obj_get_index.exit
  %24 = trunc nuw nsw i64 %indvars.iv.i to i32
  %25 = getelementptr inbounds nuw i8, ptr %22, i64 64
  %26 = load i16, ptr %25, align 8, !tbaa !38
  %27 = zext i16 %26 to i32
  %28 = add nsw i32 %27, -2
  %.not4765 = icmp slt i32 %28, %24
  br i1 %.not4765, label %.split, label %.lr.ph67

.lr.ph67:                                         ; preds = %.lr.ph.split.split
  %29 = load ptr, ptr %22, align 8, !tbaa !42
  %sext = shl i64 %indvars.iv.i, 32
  %30 = ashr exact i64 %sext, 32
  %31 = add nsw i32 %27, -1
  %wide.trip.count = sext i32 %31 to i64
  br label %lv_obj_get_child_count.exit

.preheader.i50:                                   ; preds = %lv_obj_get_parent.exit.i, %.preheader.i50
  br label %.preheader.i50

lv_obj_get_child_count.exit:                      ; preds = %.lr.ph67, %lv_obj_get_child_count.exit
  %indvars.iv = phi i64 [ %30, %.lr.ph67 ], [ %indvars.iv.next, %lv_obj_get_child_count.exit ]
  %indvars.iv.next = add nsw i64 %indvars.iv, 1
  %32 = getelementptr inbounds ptr, ptr %29, i64 %indvars.iv.next
  %33 = load ptr, ptr %32, align 8, !tbaa !33
  %34 = getelementptr inbounds ptr, ptr %29, i64 %indvars.iv
  store ptr %33, ptr %34, align 8, !tbaa !33
  %exitcond.not = icmp eq i64 %indvars.iv.next, %wide.trip.count
  br i1 %exitcond.not, label %.split, label %lv_obj_get_child_count.exit

.split:                                           ; preds = %lv_obj_get_child_count.exit, %lv_obj_get_index.exit, %.lr.ph.split.split
  %35 = getelementptr inbounds nuw i8, ptr %22, i64 64
  %36 = load i16, ptr %35, align 8, !tbaa !38
  %37 = add i16 %36, -1
  store i16 %37, ptr %35, align 8, !tbaa !38
  %.not48 = icmp eq i16 %37, 0
  %38 = load ptr, ptr %22, align 8, !tbaa !42
  br i1 %.not48, label %43, label %39

39:                                               ; preds = %.split
  %40 = zext i16 %37 to i64
  %41 = shl nuw nsw i64 %40, 3
  %42 = tail call ptr @lv_realloc(ptr noundef %38, i64 noundef %41) #6
  br label %lv_obj_get_child_count.exit54

43:                                               ; preds = %.split
  tail call void @lv_free(ptr noundef %38) #6
  br label %lv_obj_get_child_count.exit54

lv_obj_get_child_count.exit54:                    ; preds = %39, %43
  %.sink = phi ptr [ %42, %39 ], [ null, %43 ]
  %44 = load ptr, ptr %21, align 8, !tbaa !37
  store ptr %.sink, ptr %44, align 8, !tbaa !42
  %45 = getelementptr inbounds nuw i8, ptr %1, i64 16
  %46 = load ptr, ptr %45, align 8, !tbaa !37
  %47 = getelementptr inbounds nuw i8, ptr %46, i64 64
  %48 = load i16, ptr %47, align 8, !tbaa !38
  %49 = add i16 %48, 1
  store i16 %49, ptr %47, align 8, !tbaa !38
  %50 = load ptr, ptr %46, align 8, !tbaa !42
  %51 = zext i16 %49 to i64
  %52 = shl nuw nsw i64 %51, 3
  %53 = tail call ptr @lv_realloc(ptr noundef %50, i64 noundef %52) #6
  %54 = load ptr, ptr %45, align 8, !tbaa !37
  store ptr %53, ptr %54, align 8, !tbaa !42
  %55 = getelementptr inbounds nuw i8, ptr %54, i64 64
  %56 = load i16, ptr %55, align 8, !tbaa !38
  %57 = zext i16 %56 to i64
  %58 = add nuw nsw i64 %57, 4294967295
  %59 = and i64 %58, 4294967295
  %60 = getelementptr inbounds nuw ptr, ptr %53, i64 %59
  store ptr %0, ptr %60, align 8, !tbaa !33
  store ptr %1, ptr %5, align 8, !tbaa !3
  tail call void @lv_obj_scrollbar_invalidate(ptr noundef nonnull %9) #6
  %61 = tail call i32 @lv_obj_send_event(ptr noundef nonnull %9, i32 noundef 42, ptr noundef nonnull %0) #6
  %62 = tail call i32 @lv_obj_send_event(ptr noundef nonnull %9, i32 noundef 44, ptr noundef null) #6
  %63 = tail call i32 @lv_obj_send_event(ptr noundef nonnull %1, i32 noundef 42, ptr noundef nonnull %0) #6
  %64 = tail call i32 @lv_obj_send_event(ptr noundef nonnull %1, i32 noundef 43, ptr noundef null) #6
  tail call void @lv_obj_mark_layout_as_dirty(ptr noundef nonnull %0) #6
  tail call void @lv_obj_invalidate(ptr noundef nonnull %0) #6
  br label %65

65:                                               ; preds = %4, %lv_obj_get_child_count.exit54
  ret void
}